ccollections
defaultdict
p0
(ccollections
Counter
p1
tp2
Rp3
VCharts_M16
p4
g1
((dp5
S'Charts_Data_M16'
p6
I71
sS'Dashboard_M16_EEPS'
p7
I13
stp8
Rp9
sVCharts_M14
p10
g1
((dp11
S'Dashboard_M14'
p12
I46
stp13
Rp14
sVCharts_M15
p15
g1
((dp16
S'Charts_Data_M15'
p17
I148
stp18
Rp19
sVCharts_M13
p20
g1
((dp21
S'Dashboard_M13'
p22
I62
stp23
Rp24
sVDashboard_M5_Price_Annual
p25
g1
((dp26
S'EIA_Consumption'
p27
I504
sS'Dashboard_M5_Price_Annual'
p28
I1001
stp29
Rp30
sVCharts_M8_Alt
p31
g1
((dp32
tp33
Rp34
sVInput_PV
p35
g1
((dp36
S'Input_PV'
p37
I9
stp38
Rp39
sVCharts_Data_M4_Price
p40
g1
((dp41
S'Charts_M4_Price'
p42
I994
sS'Dashboard_M4_Price_Annual'
p43
I995
stp44
Rp45
sVCarbon_Coefficients
p46
g1
((dp47
S'EIA_Consumption'
p48
I1452
sS'Carbon_Coefficients'
p49
I1951
sS'LCEF_by_Fuel_Type'
p50
I1
stp51
Rp52
sVDBEDT_Monthly_Percent
p53
g1
((dp54
S'DBEDT_Yearly'
p55
I33900
sS'Input_DBEDT_Monthly_Energy'
p56
I34126
sS'DBEDT_Monthly_Percent'
p57
I33900
stp58
Rp59
sVBiodiesel
p60
g1
((dp61
S'Biodiesel'
p62
I1200
sS'Carbon_Coefficients'
p63
I125
sS'DBEDT_Biodiesel'
p64
I25
sS'LCEF_by_Fuel_Type'
p65
I4
stp66
Rp67
sVInput_EIA_Imports_Coal_Domestic
p68
g1
((dp69
tp70
Rp71
sVCharts_Data_M4_Cost
p72
g1
((dp73
S'Charts_M4_Cost'
p74
I1085
sS'Dashboard_M4_Cost_Annual'
p75
I1086
stp76
Rp77
sVInput_EIA_Crude_WTI
p78
g1
((dp79
tp80
Rp81
sVCharts_Data_M13
p82
g1
((dp83
S'Charts_Data_M13'
p84
I501
sS'Charts_M13'
p85
I1
sS'Dashboard_M13'
p86
I292
stp87
Rp88
sVCharts_Data_M10
p89
g1
((dp90
S'Charts_Data_M10'
p91
I377
sS'Dashboard_M10_RPS'
p92
I355
sS'Charts_M10_RPS'
p93
I2
sS'Charts_Interactive_LookupTables'
p94
I2
stp95
Rp96
sVCharts_Data_M11
p97
g1
((dp98
S'Dashboard_M11_EEPS'
p99
I685
sS'Charts_Data_M11'
p100
I535
sS'Charts_M11_EEPS'
p101
I9
sS'Charts_Interactive_LookupTables'
p102
I9
stp103
Rp104
sVCharts_Data_M16
p105
g1
((dp106
S'Charts_M16'
p107
I8
sS'Charts_Interactive_LookupTables'
p108
I8
sS'Charts_Data_M16'
p109
I205
sS'Dashboard_M16_EEPS'
p110
I350
stp111
Rp112
sVUpdate
p113
g1
((dp114
S'Update'
p115
I1072
stp116
Rp117
sVCharts_Data_M14
p118
g1
((dp119
S'Charts_M14'
p120
I2
sS'Charts_Data_M14'
p121
I497
sS'Dashboard_M14'
p122
I726
stp123
Rp124
sVCharts_Data_M15
p125
g1
((dp126
S'Dashboard_M15'
p127
I1000
sS'Charts_M15'
p128
I5
sS'Charts_Interactive_LookupTables'
p129
I5
sS'Charts_Data_M15'
p130
I256
stp131
Rp132
sVDashboard_M5_Price_Monthly
p133
g1
((dp134
S'Unit_Conversions'
p135
I3600
sS'SNG'
p136
I300
sS'LPG_Monthly'
p137
I300
sS'Crude_Oil_Prices'
p138
I300
sS'Dashboard_M5_Price_Annual'
p139
I2400
sS'Input_Ethanol_Monthly'
p140
I598
sS'Dashboard_M5_Price_Monthly'
p141
I21917
sS'Input_DBEDT_Monthly_Energy'
p142
I2100
sS'DBEDT_Monthly_Percent'
p143
I1500
sS'Hawaii_Jet_Fuel_Price'
p144
I600
stp145
Rp146
sVInput_DBEDT_Monthly_Energy
p147
g1
((dp148
S'Input_DBEDT_Monthly_Energy'
p149
I300
stp150
Rp151
sVCharts_M10_RPS
p152
g1
((dp153
S'Charts_Data_M10'
p154
I86
sS'Dashboard_M10_RPS'
p155
I16
stp156
Rp157
sVEIA_Imports
p158
g1
((dp159
S'EIA_Petroleum_Classification'
p160
I4998
sS'Input_EIA_Imports_Petroleum'
p161
I19992
sS'EIA_Imports'
p162
I4770
stp163
Rp164
sVCharts_M5_Price
p165
g1
((dp166
S'Dashboard_M5_Price_Monthly'
p167
I13
sS'Charts_Data_M5_Monthly'
p168
I2
stp169
Rp170
sVSynthetic_Natural_Gas
p171
g1
((dp172
S'EIA_Consumption'
p173
I111
sS'Synthetic_Natural_Gas'
p174
I793
sS'Carbon_Coefficients'
p175
I122
stp176
Rp177
sVInput_EPA_CO2_Emissions
p178
g1
((dp179
tp180
Rp181
sVM15_Hawaii_Projects_in_Pipeline
p182
g1
((dp183
tp184
Rp185
sVEIA_Consumption
p186
g1
((dp187
S'Input_EIA_SEDS'
p188
I22422
sS'EIA_Consumption'
p189
I45258
stp190
Rp191
sVOLD_Input_EIA_Jet_Fuel_Price
p192
g1
((dp193
S'OLD_Input_EIA_Jet_Fuel_Price'
p194
I2446
stp195
Rp196
sVDashboard_M6_Quarterly
p197
g1
((dp198
S'Dashboard_M6_Quarterly'
p199
I2671
sS'Input_Green_Jobs_Brookings'
p200
I32
sS'Input_Gren_Jobs_BLS'
p201
I1162
stp202
Rp203
sVSNG
p204
g1
((dp205
S'EIA_Expenditures'
p206
I183
sS'SNG'
p207
I1511
sS'Unit_Conversions'
p208
I2
stp209
Rp210
sVEIA_Imports_Gasoline
p211
g1
((dp212
S'EIA_Imports'
p213
I20598
sS'EIA_Imports_Gasoline'
p214
I10299
stp215
Rp216
sVInput_DBEDT_Population
p217
g1
((dp218
tp219
Rp220
sVHawaii_Jet_Fuel_Price
p221
g1
((dp222
S'Hawaii_Jet_Fuel_Price'
p223
I3893
sS'Input_Hawaii_Jet_Fuel_Price'
p224
I1112
sS'Input_EIA_Jet_Fuel_Price'
p225
I1106
stp226
Rp227
sVAggregated_Dashboard_Yearly
p228
g1
((dp229
S'Dashboard_M12_Local_Fuel'
p230
I1090
sS'Dashboard_M5_Price_Annual'
p231
I2541
sS'Dashboard_M12_Transportation'
p232
I4620
sS'Dashboard_M2_Annual'
p233
I6006
sS'Dashboard_M8_Alt'
p234
I2321
sS'Dashboard_M13'
p235
I1363
sS'Dashboard_M14'
p236
I987
sS'Dashboard_M15'
p237
I1258
sS'Dashboard_M4_Cost_Annual'
p238
I3465
sS'Dashboard_M8'
p239
I2881
sS'Dashboard_M2_Imports_Data'
p240
I736
sS'Dashboard_M11_EEPS'
p241
I5434
sS'Dashboard_M5_Price_Monthly'
p242
I93
sS'Dashboard_M4_Price_Annual'
p243
I9548
sS'Dashboard_M10_RPS'
p244
I5586
sS'Dashboard_M5_Cost_Monthly'
p245
I93
sS'Dashboard_M1'
p246
I15092
sS'Dashboard_M3'
p247
I13783
sS'Aggregated_Dashboard_Yearly'
p248
I2654
sS'Dashboard_M11_HCEI'
p249
I1140
sS'Dashboard_M16_EEPS'
p250
I1292
stp251
Rp252
sVDashboard_M16_EEPS
p253
g1
((dp254
S'Input_RPS'
p255
I544
sS'Dashboard_M16_EEPS'
p256
I531
stp257
Rp258
sVHawaii_Population
p259
g1
((dp260
S'Input_DBEDT_Population'
p261
I396
sS'Hawaii_Population'
p262
I594
stp263
Rp264
sVCharts_M4_Cost
p265
g1
((dp266
S'Dashboard_M4_Cost_Annual'
p267
I144
stp268
Rp269
sVEIA_Nameplate_Capacity
p270
g1
((dp271
S'Input_EIA_Existing_Capacity'
p272
I250000
stp273
Rp274
sVDBEDT_Biodiesel
p275
g1
((dp276
S'Input_DBEDT_Monthly_Energy'
p277
I142
sS'DBEDT_Biodiesel'
p278
I497
stp279
Rp280
sVMetric_4_5_7_8_Data_QC
p281
g1
((dp282
S'EIA_Consumption'
p283
I147
sS'Dashboard_M4_Cost_Monthly'
p284
I135
sS'Metric_4_5_7_8_Data_QC'
p285
I689
sS'Dashboard_M4_Price_Monthly'
p286
I711
stp287
Rp288
sVInput_EIA_Planned_Capacity
p289
g1
((dp290
tp291
Rp292
sVDashboard_M8_Alt
p293
g1
((dp294
S'Dashboard_M8_Alt'
p295
I1506
sS'EIA_Consumption'
p296
I356
sS'EIA_Expenditures'
p297
I116
sS'Input_RPS'
p298
I465
stp299
Rp300
sVCrude_Oil_Prices
p301
g1
((dp302
S'Input_EIA_Crude_Europe_Brent'
p303
I524
sS'Input_EIA_Crude_WTI'
p304
I540
stp305
Rp306
sVDashboard_M2_Imports_Data
p307
g1
((dp308
S'EIA_Consumption'
p309
I4562
sS'Dashboard_M2_Imports_Data'
p310
I19240
sS'Coal_Foreign_Imports'
p311
I1210
sS'Country_Imports_Petroleum'
p312
I72
sS'EIA_Imports_Monthly'
p313
I4428
sS'EIA_Imports'
p314
I82
sS'EIA_Expenditures'
p315
I42
stp316
Rp317
sVCharts_M12_Transportation
p318
g1
((dp319
S'Dashboard_M10_RPS'
p320
I22
sS'Dashboard_M12_Transportation'
p321
I253
stp322
Rp323
sVCharts_Data_M12_Local_Fuel
p324
g1
((dp325
S'Charts_M12_Local_Fuel'
p326
I448
sS'Dashboard_M12_Local_Fuel'
p327
I768
sS'Charts_Data_M12_Local_Fuel'
p328
I256
stp329
Rp330
sVGSP_Hawaii
p331
g1
((dp332
S'Input_EIA_SEDS'
p333
I393
sS'GSP_Hawaii'
p334
I561
stp335
Rp336
sVCharts_Data_M1
p337
g1
((dp338
S'Dashboard_M1'
p339
I1704
sS'Interactive_List_M1'
p340
I9
sS'Charts_M1'
p341
I14
sS'Charts_Data_M1'
p342
I3317
stp343
Rp344
sVCharts_Data_M2
p345
g1
((dp346
S'Charts_Data_M2'
p347
I185
sS'Dashboard_M2_Annual'
p348
I236
sS'Charts_M2'
p349
I3
sS'Charts_Interactive_LookupTables'
p350
I3
stp351
Rp352
sVCharts_Data_M3
p353
g1
((dp354
S'Interactive_List_M3'
p355
I9
sS'Dashboard_M3'
p356
I1936
sS'Charts_Data_M3'
p357
I2878
sS'Charts_M3'
p358
I8
stp359
Rp360
sVCover
p361
g1
((dp362
tp363
Rp364
sVLCEF_by_Fuel_Type
p365
g1
((dp366
S'LCEF_by_Fuel_Type'
p367
I52
stp368
Rp369
sVCharts_M5_Cost
p370
g1
((dp371
S'Dashboard_M5_Cost_Monthly'
p372
I8
sS'Charts_Data_M5_Monthly'
p373
I2
stp374
Rp375
sVCharts_M4_Price
p376
g1
((dp377
S'Charts_Data_M4_Price'
p378
I6
sS'Dashboard_M4_Price_Annual'
p379
I48
stp380
Rp381
sVCharts_Data_M6
p382
g1
((dp383
S'Dashboard_M6_Quarterly'
p384
I1189
sS'Charts_Data_M6'
p385
I2244
stp386
Rp387
sVCountry_Imports_Jet_Fuel
p388
g1
((dp389
S'EIA_Consumption'
p390
I156
sS'LCEF_by_Country'
p391
I57
sS'EIA_Imports_Jet_Fuel'
p392
I7392
sS'Country_Imports_Jet_Fuel'
p393
I18480
sS'Carbon_Coefficients'
p394
I2552
stp395
Rp396
sVEIA_Imports_Monthly
p397
g1
((dp398
S'EIA_Petroleum_Classification'
p399
I9
sS'EIA_Imports_Monthly'
p400
I9756
sS'EIA_Imports'
p401
I14580
stp402
Rp403
sVDashboard_M4_Cost_Monthly
p404
g1
((dp405
S'Dashboard_M4_Cost_Monthly'
p406
I92628
sS'Dashboard_M4_Price_Monthly'
p407
I32164
stp408
Rp409
sVOLD_Input_Population
p410
g1
((dp411
S'OLD_Input_Population'
p412
I114
stp413
Rp414
sVDashboard_M4_Cost_Annual
p415
g1
((dp416
S'DBEDT_Yearly'
p417
I142
sS'EIA_Consumption'
p418
I5603
sS'Dashboard_M4_Price_Monthly'
p419
I1154
sS'Dashboard_M4_Cost_Monthly'
p420
I3092
sS'Input_DBEDT_Monthly_Energy'
p421
I92
sS'Dashboard_M4_Cost_Annual'
p422
I14495
stp423
Rp424
sVCharts_Interactive_LookupTables
p425
g1
((dp426
tp427
Rp428
sVEIA_Imports_Distillate_Fuel
p429
g1
((dp430
S'EIA_Imports_Distillate_Fuel'
p431
I13408
sS'EIA_Imports'
p432
I26816
stp433
Rp434
sVCountry_Imports_Petroleum
p435
g1
((dp436
S'EIA_Consumption'
p437
I156
sS'LCEF_by_Country'
p438
I57
sS'Carbon_Coefficients'
p439
I2552
sS'Country_Imports_Petroleum'
p440
I18610
sS'EIA_Imports'
p441
I7392
stp442
Rp443
sVDashboard_M4_Price_Annual
p444
g1
((dp445
S'EIA_Consumption'
p446
I3413
sS'EIA_Expenditures'
p447
I150
sS'Dashboard_M4_Price_Annual'
p448
I10377
sS'Dashboard_M4_Price_Monthly'
p449
I1836
stp450
Rp451
sVInput_Gren_Jobs_BLS
p452
g1
((dp453
tp454
Rp455
sVDashboard_M5_Cost_Monthly
p456
g1
((dp457
S'Unit_Conversions'
p458
I900
sS'Dashboard_M4_Cost_Monthly'
p459
I3000
sS'Input_DBEDT_Monthly_Energy'
p460
I600
sS'DBEDT_Monthly_Percent'
p461
I1500
sS'Dashboard_M5_Cost_Monthly'
p462
I8718
sS'Crude_Oil_Prices'
p463
I300
sS'Dashboard_M5_Price_Annual'
p464
I6300
stp465
Rp466
sVEIA_Imports_Fuel_Ethanol
p467
g1
((dp468
S'EIA_Imports_Fuel_Ethanol'
p469
I13408
sS'EIA_Imports'
p470
I26816
stp471
Rp472
sVInput_Green_Jobs_Brookings
p473
g1
((dp474
S'Input_Green_Jobs_Brookings'
p475
I10
stp476
Rp477
sVDashboard_M12_Local_Fuel
p478
g1
((dp479
S'Dashboard_M12_Local_Fuel'
p480
I438
sS'Input_RPS'
p481
I32
sS'Dashboard_M10_RPS'
p482
I228
stp483
Rp484
sVEIA_Imports_Jet_Fuel
p485
g1
((dp486
S'EIA_Imports_Jet_Fuel'
p487
I13408
sS'EIA_Imports'
p488
I26816
stp489
Rp490
sVInput_EIA_Fuel_Oil_Price
p491
g1
((dp492
tp493
Rp494
sVCharts_M8
p495
g1
((dp496
S'Dashboard_M8'
p497
I14
stp498
Rp499
sVInput_EIA_Imports_Petroleum
p500
g1
((dp501
tp502
Rp503
sVCharts_M6
p504
g1
((dp505
S'Charts_Data_M6'
p506
I24
stp507
Rp508
sVCharts_M7
p509
g1
((dp510
tp511
Rp512
sVCharts_M1
p513
g1
((dp514
S'Charts_Data_M1'
p515
I3
stp516
Rp517
sVCharts_M2
p518
g1
((dp519
S'Charts_Data_M2'
p520
I1
sS'Dashboard_M2_Annual'
p521
I50
stp522
Rp523
sVCharts_M3
p524
g1
((dp525
S'Charts_Data_M3'
p526
I3
stp527
Rp528
sVDashboard_M13
p529
g1
((dp530
S'Dashboard_M13'
p531
I990
sS'Input_EPA_CO2_Emissions'
p532
I246
stp533
Rp534
sVDashboard_M14
p535
g1
((dp536
S'Input_EPA_CO2_Emissions'
p537
I246
sS'Dashboard_M14'
p538
I932
stp539
Rp540
sVDashboard_M15
p541
g1
((dp542
S'EIA_Nameplate_Capacity'
p543
I372
sS'Input_PV'
p544
I31
sS'Dashboard_M15'
p545
I1230
stp546
Rp547
sVAggregated_Charts_Data_Yearly
p548
g1
((dp549
S'Charts_Data_M12_Local_Fuel'
p550
I912
sS'Charts_Data_M3'
p551
I2233
sS'Charts_Data_M4_Cost'
p552
I1386
sS'Aggregated_Charts_Data_Yearly'
p553
I514
sS'Charts_Data_M1'
p554
I3003
sS'Charts_Data_M2'
p555
I752
sS'Charts_Data_M11'
p556
I760
sS'Charts_Data_M14'
p557
I611
sS'Charts_Data_M15'
p558
I444
sS'Charts_Data_M1_Extra'
p559
I2233
sS'Charts_Data_M13'
p560
I376
sS'Charts_Data_M4_Price'
p561
I1155
sS'Charts_Data_M10'
p562
I722
sS'Charts_Data_M12_Transportation'
p563
I1155
stp564
Rp565
sVInteractive_List_M3
p566
g1
((dp567
tp568
Rp569
sVInteractive_List_M1
p570
g1
((dp571
tp572
Rp573
sVAggregated_Dashboard_Monthly
p574
g1
((dp575
S'Dashboard_M2_Monthly'
p576
I37128
sS'Dashboard_M2_Imports_Data'
p577
I14471
sS'Dashboard_M4_Cost_Monthly'
p578
I74358
sS'Aggregated_Dashboard_Monthly'
p579
I3862
sS'Dashboard_M5_Price_Monthly'
p580
I24480
sS'Dashboard_M5_Cost_Monthly'
p581
I14076
sS'Dashboard_M4_Price_Monthly'
p582
I105301
stp583
Rp584
sVInput_Retirements
p585
g1
((dp586
tp587
Rp588
sVLPG_Annual
p589
g1
((dp590
S'EIA_Expenditures'
p591
I123
sS'LPG_Annual'
p592
I368
sS'LPG_Monthly'
p593
I122
sS'Unit_Conversions'
p594
I61
stp595
Rp596
sVCountry_Imports_Ethanol_Fuel
p597
g1
((dp598
S'EIA_Consumption'
p599
I89
sS'EIA_Imports_Fuel_Ethanol'
p600
I7392
sS'Country_Imports_Ethanol_Fuel'
p601
I18525
sS'LCEF_by_Fuel_Type'
p602
I57
sS'Carbon_Coefficients'
p603
I2508
stp604
Rp605
sVDBEDT_Yearly
p606
g1
((dp607
S'DBEDT_Yearly'
p608
I2798
sS'Input_DBEDT_Monthly_Energy'
p609
I5775
stp610
Rp611
sVM15_Hawaii_Projects_List
p612
g1
((dp613
tp614
Rp615
sVCoal_Foreign_Imports
p616
g1
((dp617
S'Coal_Foreign_Imports'
p618
I598
sS'Input_EIA_Imports_Coal_Foreign'
p619
I897
stp620
Rp621
sVOLD_Input_GSP_Deflator
p622
g1
((dp623
S'OLD_Input_GSP_Deflator'
p624
I7068
stp625
Rp626
sVInput_EIA_Imports_Coal_Foreign
p627
g1
((dp628
tp629
Rp630
sVInput_EIA_Jet_Fuel_Price
p631
g1
((dp632
tp633
Rp634
sVInput_EIA_Existing_Capacity
p635
g1
((dp636
tp637
Rp638
sVCountry_Imports_Distillate_Fuel
p639
g1
((dp640
S'EIA_Consumption'
p641
I176
sS'EIA_Imports_Distillate_Fuel'
p642
I7392
sS'LCEF_by_Country'
p643
I57
sS'Carbon_Coefficients'
p644
I2552
sS'Country_Imports_Distillate_Fuel'
p645
I18524
stp646
Rp647
sVEnergy_Source_Glossary
p648
g1
((dp649
tp650
Rp651
sVInput_EIA_New_Plants
p652
g1
((dp653
S'Input_EIA_New_Plants'
p654
I88
stp655
Rp656
sVOLD_Input_GSP_Hawaii
p657
g1
((dp658
S'EIA_Expenditures'
p659
I156
sS'OLD_Input_GSP_Hawaii'
p660
I179
sS'GSP_Hawaii'
p661
I62
stp662
Rp663
sVInput_Hawaii_Jet_Fuel_Price
p664
g1
((dp665
tp666
Rp667
sVCharts_M12_Local_Fuel
p668
g1
((dp669
S'Dashboard_M12_Local_Fuel'
p670
I119
sS'Dashboard_M10_RPS'
p671
I16
stp672
Rp673
sVDashboard_M4_Price_Monthly
p674
g1
((dp675
S'Unit_Conversions'
p676
I3001
sS'SNG'
p677
I600
sS'LPG_Monthly'
p678
I300
sS'Input_Ethanol_Monthly'
p679
I598
sS'EIA_Consumption'
p680
I11139
sS'Input_DBEDT_Monthly_Energy'
p681
I1800
sS'DBEDT_Monthly_Percent'
p682
I900
sS'EIA_Expenditures'
p683
I2107
sS'Hawaii_Jet_Fuel_Price'
p684
I600
sS'Dashboard_M4_Price_Monthly'
p685
I157273
stp686
Rp687
sVInput_RPS
p688
g1
((dp689
S'Input_RPS'
p690
I1362
stp691
Rp692
sVLCEF_by_Country
p693
g1
((dp694
S'LCEF_by_Country'
p695
I2337
sS'LCEF_by_Fuel_Type'
p696
I1197
stp697
Rp698
sVEIA_Petroleum_Classification
p699
g1
((dp700
tp701
Rp702
sVCharts_M11_EEPS
p703
g1
((dp704
S'Charts_Data_M10'
p705
I4
sS'Charts_Data_M11'
p706
I82
sS'Dashboard_M10_RPS'
p707
I16
stp708
Rp709
sVDashboard_M11_EEPS
p710
g1
((dp711
S'Input_RPS'
p712
I704
sS'Dashboard_M11_EEPS'
p713
I4116
sS'Dashboard_M10_RPS'
p714
I160
stp715
Rp716
sVCountry_Imports_Gasoline
p717
g1
((dp718
S'EIA_Consumption'
p719
I156
sS'LCEF_by_Country'
p720
I57
sS'Carbon_Coefficients'
p721
I2552
sS'Country_Imports_Gasoline'
p722
I18480
sS'EIA_Imports_Gasoline'
p723
I7392
stp724
Rp725
sVDashboard_M10_RPS
p726
g1
((dp727
S'Input_RPS'
p728
I1759
sS'Dashboard_M10_RPS'
p729
I3517
stp730
Rp731
sVInput_EIA_Crude_Europe_Brent
p732
g1
((dp733
tp734
Rp735
sVLPG_Monthly
p736
g1
((dp737
S'Input_EIA_Propane_Price'
p738
I465
sS'LPG_Monthly'
p739
I1389
sS'LPG_Annual'
p740
I463
stp741
Rp742
sVCharts_Data_M12_Transportation
p743
g1
((dp744
S'Charts_Data_M12_Transportation'
p745
I151
sS'Charts_M12_Transportation'
p746
I1
sS'Charts_M11_EEPS'
p747
I6
sS'Dashboard_M12_Transportation'
p748
I80
sS'Charts_Interactive_LookupTables'
p749
I7
stp750
Rp751
sVInput_EIA_SEDS
p752
g1
((dp753
S'Input_EIA_SEDS'
p754
I248
stp755
Rp756
sVDashboard_M2_Monthly
p757
g1
((dp758
S'Unit_Conversions'
p759
I1080
sS'Coal_Foreign_Imports'
p760
I984
sS'Crude_Oil_Prices'
p761
I1082
sS'Input_Ethanol_Monthly'
p762
I542
sS'Dashboard_M2_Monthly'
p763
I22907
sS'Dashboard_M2_Imports_Data'
p764
I3936
sS'Input_EIA_Fuel_Oil_Price'
p765
I2160
sS'Input_DBEDT_Monthly_Energy'
p766
I600
sS'Hawaii_Jet_Fuel_Price'
p767
I541
stp768
Rp769
sVInput_EIA_Propane_Price
p770
g1
((dp771
tp772
Rp773
sVDashboard_M12_Transportation
p774
g1
((dp775
S'EIA_Consumption'
p776
I852
sS'DBEDT_Yearly'
p777
I25
sS'DBEDT_Biodiesel'
p778
I71
sS'Dashboard_M12_Transportation'
p779
I6687
stp780
Rp781
sVEIA_Expenditures
p782
g1
((dp783
S'EIA_Expenditures'
p784
I36456
sS'Input_EIA_SEDS'
p785
I18352
stp786
Rp787
sVDashboard_M2_Annual
p788
g1
((dp789
S'Dashboard_M2_Monthly'
p790
I1484
sS'Dashboard_M2_Annual'
p791
I2296
stp792
Rp793
sVUnit_Conversions
p794
g1
((dp795
S'Unit_Conversions'
p796
I49
stp797
Rp798
sVOLD_Input_EIA_Imports_Coal_Fore
p799
g1
((dp800
S'OLD_Input_EIA_Imports_Coal_Fore'
p801
I178
stp802
Rp803
sVCoal
p804
g1
((dp805
S'EIA_Consumption'
p806
I60
sS'Coal'
p807
I900
sS'Carbon_Coefficients'
p808
I122
stp809
Rp810
sVCharts_Data_M1_Extra
p811
g1
((dp812
S'Charts_Data_M1_Extra'
p813
I892
sS'Dashboard_M1'
p814
I449
sS'Charts_Data_M1'
p815
I448
stp816
Rp817
sVInput_Ethanol_Monthly
p818
g1
((dp819
tp820
Rp821
sVDashboard_M8
p822
g1
((dp823
S'Dashboard_M8'
p824
I2247
sS'EIA_Expenditures'
p825
I817
sS'Dashboard_M4_Cost_Monthly'
p826
I150
sS'GSP_Hawaii'
p827
I61
stp828
Rp829
sVDashboard_M11_HCEI
p830
g1
((dp831
S'Input_RPS'
p832
I160
sS'Dashboard_M11_EEPS'
p833
I32
sS'Dashboard_M11_HCEI'
p834
I174
sS'Dashboard_M10_RPS'
p835
I32
stp836
Rp837
sVCharts_Data_M5_Monthly
p838
g1
((dp839
S'Dashboard_M5_Price_Monthly'
p840
I3002
sS'Charts_Data_M5_Monthly'
p841
I2443
sS'Dashboard_M5_Cost_Monthly'
p842
I3000
sS'Charts_M5_Price'
p843
I601
sS'Charts_M5_Cost'
p844
I601
sS'Charts_Interactive_LookupTables'
p845
I2
stp846
Rp847
sVDashboard_M1
p848
g1
((dp849
S'Carbon_Coefficients'
p850
I142
sS'GSP_Hawaii'
p851
I68
sS'Country_Imports_Jet_Fuel'
p852
I44
sS'Country_Imports_Distillate_Fuel'
p853
I44
sS'EIA_Consumption'
p854
I3026
sS'Country_Imports_Gasoline'
p855
I44
sS'Hawaii_Population'
p856
I71
sS'Biodiesel'
p857
I305
sS'Dashboard_M1'
p858
I31514
sS'Country_Imports_Ethanol_Fuel'
p859
I26
stp860
Rp861
sVDashboard_M3
p862
g1
((dp863
S'Carbon_Coefficients'
p864
I1320
sS'GSP_Hawaii'
p865
I68
sS'Country_Imports_Jet_Fuel'
p866
I396
sS'Country_Imports_Distillate_Fuel'
p867
I1188
sS'EIA_Consumption'
p868
I17
sS'Dashboard_M1'
p869
I5707
sS'Country_Imports_Gasoline'
p870
I528
sS'Hawaii_Population'
p871
I71
sS'Biodiesel'
p872
I264
sS'Country_Imports_Petroleum'
p873
I1056
sS'Dashboard_M3'
p874
I12742
sS'Country_Imports_Ethanol_Fuel'
p875
I528
stp876
Rp877
s.